target datalayout = "e-m:e-p270:32:32-p271:32:32-p272:64:64-i64:64-i128:128-f80:128-n8:16:32:64-S128"
target triple = "x86_64-unknown-linux-gnu"

%"class.pugi::xml_node" = type { ptr }
%"class.pugi::xml_attribute" = type { ptr }
%"class.std::__cxx11::basic_string" = type { %"struct.std::__cxx11::basic_string<char>::_Alloc_hider", i64, %union.anon }
%"struct.std::__cxx11::basic_string<char>::_Alloc_hider" = type { ptr }
%union.anon = type { i64, [8 x i8] }
%"struct.pugi::xml_node_struct" = type { i64, ptr, ptr, ptr, ptr, ptr, ptr, ptr }
%"struct.pugi::xml_attribute_struct" = type { i64, ptr, ptr, ptr, ptr }

@.str.21 = private unnamed_addr constant [1 x i8] zeroinitializer, align 1

; Function Attrs: mustprogress nounwind uwtable
define linkonce_odr hidden void @_ZN4pugi13xml_attributeC2EPNS_20xml_attribute_structE(ptr noundef nonnull align 8 dereferenceable(8) %this, ptr noundef %attr) unnamed_addr #0 comdat align 2 {
entry:
  %this.addr = alloca ptr, align 8
  %attr.addr = alloca ptr, align 8
  store ptr %this, ptr %this.addr, align 8
  store ptr %attr, ptr %attr.addr, align 8
  %this1 = load ptr, ptr %this.addr, align 8
  %_attr = getelementptr inbounds %"class.pugi::xml_attribute", ptr %this1, i32 0, i32 0
  %0 = load ptr, ptr %attr.addr, align 8
  store ptr %0, ptr %_attr, align 8
  ret void
}

; Function Attrs: mustprogress nounwind uwtable
define linkonce_odr hidden noundef zeroext i1 @_ZN4pugi4impl8strequalEPKcS2_(ptr noundef %src, ptr noundef %dst) #0 comdat {
entry:
  %src.addr = alloca ptr, align 8
  %dst.addr = alloca ptr, align 8
  store ptr %src, ptr %src.addr, align 8
  store ptr %dst, ptr %dst.addr, align 8
  %0 = load ptr, ptr %src.addr, align 8
  %1 = load ptr, ptr %dst.addr, align 8
  %call = call i32 @strcmp(ptr noundef %0, ptr noundef %1) #18
  %cmp = icmp eq i32 %call, 0
  ret i1 %cmp
}

; Function Attrs: mustprogress nounwind uwtable
define linkonce_odr hidden void @_ZN4pugi13xml_attributeC2Ev(ptr noundef nonnull align 8 dereferenceable(8) %this) unnamed_addr #0 comdat align 2 {
entry:
  %this.addr = alloca ptr, align 8
  store ptr %this, ptr %this.addr, align 8
  %this1 = load ptr, ptr %this.addr, align 8
  %_attr = getelementptr inbounds %"class.pugi::xml_attribute", ptr %this1, i32 0, i32 0
  store ptr null, ptr %_attr, align 8
  ret void
}

; Function Attrs: mustprogress nounwind uwtable
define linkonce_odr hidden noundef ptr @_ZNK4pugi13xml_attribute9as_stringEPKc(ptr noundef nonnull align 8 dereferenceable(8) %this, ptr noundef %def) #0 comdat align 2 {
entry:
  %retval = alloca ptr, align 8
  %this.addr = alloca ptr, align 8
  %def.addr = alloca ptr, align 8
  %value = alloca ptr, align 8
  store ptr %this, ptr %this.addr, align 8
  store ptr %def, ptr %def.addr, align 8
  %this1 = load ptr, ptr %this.addr, align 8
  %_attr = getelementptr inbounds %"class.pugi::xml_attribute", ptr %this1, i32 0, i32 0
  %0 = load ptr, ptr %_attr, align 8
  %tobool = icmp ne ptr %0, null
  br i1 %tobool, label %if.end, label %if.then

if.then:                                          ; preds = %entry
  %1 = load ptr, ptr %def.addr, align 8
  store ptr %1, ptr %retval, align 8
  br label %return

if.end:                                           ; preds = %entry
  %_attr2 = getelementptr inbounds %"class.pugi::xml_attribute", ptr %this1, i32 0, i32 0
  %2 = load ptr, ptr %_attr2, align 8
  %value3 = getelementptr inbounds %"struct.pugi::xml_attribute_struct", ptr %2, i32 0, i32 2
  %3 = load ptr, ptr %value3, align 8
  store ptr %3, ptr %value, align 8
  %4 = load ptr, ptr %value, align 8
  %tobool4 = icmp ne ptr %4, null
  br i1 %tobool4, label %cond.true, label %cond.false

cond.true:                                        ; preds = %if.end
  %5 = load ptr, ptr %value, align 8
  br label %cond.end

cond.false:                                       ; preds = %if.end
  %6 = load ptr, ptr %def.addr, align 8
  br label %cond.end

cond.end:                                         ; preds = %cond.false, %cond.true
  %cond = phi ptr [ %5, %cond.true ], [ %6, %cond.false ]
  store ptr %cond, ptr %retval, align 8
  br label %return

return:                                           ; preds = %cond.end, %if.then
  %7 = load ptr, ptr %retval, align 8
  ret ptr %7
}

; Function Attrs: mustprogress nounwind uwtable
define linkonce_odr hidden noundef zeroext i1 @_ZNK4pugi13xml_attribute5emptyEv(ptr noundef nonnull align 8 dereferenceable(8) %this) #0 comdat align 2 {
entry:
  %this.addr = alloca ptr, align 8
  store ptr %this, ptr %this.addr, align 8
  %this1 = load ptr, ptr %this.addr, align 8
  %_attr = getelementptr inbounds %"class.pugi::xml_attribute", ptr %this1, i32 0, i32 0
  %0 = load ptr, ptr %_attr, align 8
  %tobool = icmp ne ptr %0, null
  %lnot = xor i1 %tobool, true
  ret i1 %lnot
}

; Function Attrs: mustprogress uwtable
define linkonce_odr hidden ptr @_ZNK4pugi8xml_node9attributeEPKc(ptr noundef nonnull align 8 dereferenceable(8) %this, ptr noundef %name_) #2 comdat align 2 {
entry:
  %retval = alloca %"class.pugi::xml_attribute", align 8
  %this.addr = alloca ptr, align 8
  %name_.addr = alloca ptr, align 8
  %i = alloca ptr, align 8
  %iname = alloca ptr, align 8
  store ptr %this, ptr %this.addr, align 8
  store ptr %name_, ptr %name_.addr, align 8
  %this1 = load ptr, ptr %this.addr, align 8
  %_root = getelementptr inbounds %"class.pugi::xml_node", ptr %this1, i32 0, i32 0
  %0 = load ptr, ptr %_root, align 8
  %tobool = icmp ne ptr %0, null
  br i1 %tobool, label %if.end, label %if.then

if.then:                                          ; preds = %entry
  call void @_ZN4pugi13xml_attributeC2Ev(ptr noundef nonnull align 8 dereferenceable(8) %retval)
  br label %return

if.end:                                           ; preds = %entry
  %_root2 = getelementptr inbounds %"class.pugi::xml_node", ptr %this1, i32 0, i32 0
  %1 = load ptr, ptr %_root2, align 8
  %first_attribute = getelementptr inbounds %"struct.pugi::xml_node_struct", ptr %1, i32 0, i32 7
  %2 = load ptr, ptr %first_attribute, align 8
  store ptr %2, ptr %i, align 8
  br label %for.cond

for.cond:                                         ; preds = %for.inc, %if.end
  %3 = load ptr, ptr %i, align 8
  %tobool3 = icmp ne ptr %3, null
  br i1 %tobool3, label %for.body, label %for.end

for.body:                                         ; preds = %for.cond
  %4 = load ptr, ptr %i, align 8
  %name = getelementptr inbounds %"struct.pugi::xml_attribute_struct", ptr %4, i32 0, i32 1
  %5 = load ptr, ptr %name, align 8
  store ptr %5, ptr %iname, align 8
  %6 = load ptr, ptr %iname, align 8
  %tobool4 = icmp ne ptr %6, null
  br i1 %tobool4, label %land.lhs.true, label %if.end6

land.lhs.true:                                    ; preds = %for.body
  %7 = load ptr, ptr %name_.addr, align 8
  %8 = load ptr, ptr %iname, align 8
  %call = call noundef zeroext i1 @_ZN4pugi4impl8strequalEPKcS2_(ptr noundef %7, ptr noundef %8)
  br i1 %call, label %if.then5, label %if.end6

if.then5:                                         ; preds = %land.lhs.true
  %9 = load ptr, ptr %i, align 8
  call void @_ZN4pugi13xml_attributeC2EPNS_20xml_attribute_structE(ptr noundef nonnull align 8 dereferenceable(8) %retval, ptr noundef %9)
  br label %return

if.end6:                                          ; preds = %land.lhs.true, %for.body
  br label %for.inc

for.inc:                                          ; preds = %if.end6
  %10 = load ptr, ptr %i, align 8
  %next_attribute = getelementptr inbounds %"struct.pugi::xml_attribute_struct", ptr %10, i32 0, i32 4
  %11 = load ptr, ptr %next_attribute, align 8
  store ptr %11, ptr %i, align 8
  br label %for.cond, !llvm.loop !12

for.end:                                          ; preds = %for.cond
  call void @_ZN4pugi13xml_attributeC2Ev(ptr noundef nonnull align 8 dereferenceable(8) %retval)
  br label %return

return:                                           ; preds = %for.end, %if.then5, %if.then
  %coerce.dive = getelementptr inbounds %"class.pugi::xml_attribute", ptr %retval, i32 0, i32 0
  %12 = load ptr, ptr %coerce.dive, align 8
  ret ptr %12
}

; Function Attrs: mustprogress uwtable
define internal noundef zeroext i1 @_ZN6Assimp4D3MF12_GLOBAL__N_116getNodeAttributeERKN4pugi8xml_nodeERKNSt7__cxx1112basic_stringIcSt11char_traitsIcESaIcEEERSB_(ptr noundef nonnull align 8 dereferenceable(8) %node, ptr noundef nonnull align 8 dereferenceable(32) %attribute, ptr noundef nonnull align 8 dereferenceable(32) %value) #2 {
entry:
  %retval = alloca i1, align 1
  %node.addr = alloca ptr, align 8
  %attribute.addr = alloca ptr, align 8
  %value.addr = alloca ptr, align 8
  %objectAttribute = alloca %"class.pugi::xml_attribute", align 8
  store ptr %node, ptr %node.addr, align 8
  store ptr %attribute, ptr %attribute.addr, align 8
  store ptr %value, ptr %value.addr, align 8
  %0 = load ptr, ptr %node.addr, align 8
  %1 = load ptr, ptr %attribute.addr, align 8
  %call = call noundef ptr @_ZNKSt7__cxx1112basic_stringIcSt11char_traitsIcESaIcEE5c_strEv(ptr noundef nonnull align 8 dereferenceable(32) %1) #5
  %call1 = call ptr @_ZNK4pugi8xml_node9attributeEPKc(ptr noundef nonnull align 8 dereferenceable(8) %0, ptr noundef %call)
  %coerce.dive = getelementptr inbounds %"class.pugi::xml_attribute", ptr %objectAttribute, i32 0, i32 0
  store ptr %call1, ptr %coerce.dive, align 8
  %call2 = call noundef zeroext i1 @_ZNK4pugi13xml_attribute5emptyEv(ptr noundef nonnull align 8 dereferenceable(8) %objectAttribute)
  br i1 %call2, label %if.end, label %if.then

if.then:                                          ; preds = %entry
  %call3 = call noundef ptr @_ZNK4pugi13xml_attribute9as_stringEPKc(ptr noundef nonnull align 8 dereferenceable(8) %objectAttribute, ptr noundef @.str.21)
  %2 = load ptr, ptr %value.addr, align 8
  %call4 = call noundef nonnull align 8 dereferenceable(32) ptr @_ZNSt7__cxx1112basic_stringIcSt11char_traitsIcESaIcEEaSEPKc(ptr noundef nonnull align 8 dereferenceable(32) %2, ptr noundef %call3)
  store i1 true, ptr %retval, align 1
  br label %return

if.end:                                           ; preds = %entry
  store i1 false, ptr %retval, align 1
  br label %return

return:                                           ; preds = %if.end, %if.then
  %3 = load i1, ptr %retval, align 1
  ret i1 %3
}

; Function Attrs: mustprogress uwtable
define internal noundef zeroext i1 @_ZN6Assimp4D3MF12_GLOBAL__N_116getNodeAttributeERKN4pugi8xml_nodeERKNSt7__cxx1112basic_stringIcSt11char_traitsIcESaIcEEERi(ptr noundef nonnull align 8 dereferenceable(8) %node, ptr noundef nonnull align 8 dereferenceable(32) %attribute, ptr noundef nonnull align 4 dereferenceable(4) %value) #2 personality ptr @__gxx_personality_v0 {
entry:
  %retval = alloca i1, align 1
  %node.addr = alloca ptr, align 8
  %attribute.addr = alloca ptr, align 8
  %value.addr = alloca ptr, align 8
  %strValue = alloca %"class.std::__cxx11::basic_string", align 8
  %ret = alloca i8, align 1
  %exn.slot = alloca ptr, align 8
  %ehselector.slot = alloca i32, align 4
  %cleanup.dest.slot = alloca i32, align 4
  store ptr %node, ptr %node.addr, align 8
  store ptr %attribute, ptr %attribute.addr, align 8
  store ptr %value, ptr %value.addr, align 8
  call void @_ZNSt7__cxx1112basic_stringIcSt11char_traitsIcESaIcEEC1Ev(ptr noundef nonnull align 8 dereferenceable(32) %strValue) #5
  %0 = load ptr, ptr %node.addr, align 8
  %1 = load ptr, ptr %attribute.addr, align 8
  %call = invoke noundef zeroext i1 @_ZN6Assimp4D3MF12_GLOBAL__N_116getNodeAttributeERKN4pugi8xml_nodeERKNSt7__cxx1112basic_stringIcSt11char_traitsIcESaIcEEERSB_(ptr noundef nonnull align 8 dereferenceable(8) %0, ptr noundef nonnull align 8 dereferenceable(32) %1, ptr noundef nonnull align 8 dereferenceable(32) %strValue)
          to label %invoke.cont unwind label %lpad

invoke.cont:                                      ; preds = %entry
  %frombool = zext i1 %call to i8
  store i8 %frombool, ptr %ret, align 1
  %2 = load i8, ptr %ret, align 1
  %tobool = trunc i8 %2 to i1
  br i1 %tobool, label %if.then, label %if.end

if.then:                                          ; preds = %invoke.cont
  %call1 = call noundef ptr @_ZNKSt7__cxx1112basic_stringIcSt11char_traitsIcESaIcEE5c_strEv(ptr noundef nonnull align 8 dereferenceable(32) %strValue) #5
  %call2 = call i32 @atoi(ptr noundef %call1) #18
  %3 = load ptr, ptr %value.addr, align 8
  store i32 %call2, ptr %3, align 4
  store i1 true, ptr %retval, align 1
  store i32 1, ptr %cleanup.dest.slot, align 4
  br label %cleanup

lpad:                                             ; preds = %entry
  %4 = landingpad { ptr, i32 }
          cleanup
  %5 = extractvalue { ptr, i32 } %4, 0
  store ptr %5, ptr %exn.slot, align 8
  %6 = extractvalue { ptr, i32 } %4, 1
  store i32 %6, ptr %ehselector.slot, align 4
  call void @_ZNSt7__cxx1112basic_stringIcSt11char_traitsIcESaIcEED1Ev(ptr noundef nonnull align 8 dereferenceable(32) %strValue) #5
  br label %eh.resume

if.end:                                           ; preds = %invoke.cont
  store i1 false, ptr %retval, align 1
  store i32 1, ptr %cleanup.dest.slot, align 4
  br label %cleanup

cleanup:                                          ; preds = %if.end, %if.then
  call void @_ZNSt7__cxx1112basic_stringIcSt11char_traitsIcESaIcEED1Ev(ptr noundef nonnull align 8 dereferenceable(32) %strValue) #5
  %7 = load i1, ptr %retval, align 1
  ret i1 %7

eh.resume:                                        ; preds = %lpad
  %exn = load ptr, ptr %exn.slot, align 8
  %sel = load i32, ptr %ehselector.slot, align 4
  %lpad.val = insertvalue { ptr, i32 } poison, ptr %exn, 0
  %lpad.val3 = insertvalue { ptr, i32 } %lpad.val, i32 %sel, 1
  resume { ptr, i32 } %lpad.val3
}