; Function Attrs: mustprogress uwtable
define internal fastcc noundef zeroext i1 @_ZN6Assimp4D3MF12_GLOBAL__N_116getNodeAttributeERKN4pugi8xml_nodeERKNSt7__cxx1112basic_stringIcSt11char_traitsIcESaIcEEERi(ptr nocapture noundef nonnull readonly align 8 dereferenceable(8) %node, ptr noundef nonnull align 8 dereferenceable(32) %attribute, ptr nocapture noundef nonnull writeonly align 4 dereferenceable(4) %value) unnamed_addr #4 personality ptr @__gxx_personality_v0 {
entry:
  %strValue = alloca %"class.std::__cxx11::basic_string", align 8
  call void @_ZNSt7__cxx1112basic_stringIcSt11char_traitsIcESaIcEEC1Ev(ptr noundef nonnull align 8 dereferenceable(32) %strValue) #23
  %call.i = call noundef ptr @_ZNKSt7__cxx1112basic_stringIcSt11char_traitsIcESaIcEE5c_strEv(ptr noundef nonnull align 8 dereferenceable(32) %attribute) #23
  %0 = load ptr, ptr %node, align 8
  %tobool.not.i.i = icmp eq ptr %0, null
  br i1 %tobool.not.i.i, label %cleanup, label %if.end.i.i

if.end.i.i:                                       ; preds = %entry
  %first_attribute.i.i = getelementptr inbounds i8, ptr %0, i64 56
  %i.06.i.i = load ptr, ptr %first_attribute.i.i, align 8
  %tobool3.not7.i.i = icmp eq ptr %i.06.i.i, null
  br i1 %tobool3.not7.i.i, label %cleanup, label %for.body.i.i

for.body.i.i:                                     ; preds = %if.end.i.i, %for.inc.i.i
  %i.08.i.i = phi ptr [ %i.0.i.i, %for.inc.i.i ], [ %i.06.i.i, %if.end.i.i ]
  %name.i.i = getelementptr inbounds i8, ptr %i.08.i.i, i64 8
  %1 = load ptr, ptr %name.i.i, align 8
  %tobool4.not.i.i = icmp eq ptr %1, null
  br i1 %tobool4.not.i.i, label %for.inc.i.i, label %land.lhs.true.i.i

land.lhs.true.i.i:                                ; preds = %for.body.i.i
  %call.i.i.i = call i32 @strcmp(ptr noundef nonnull dereferenceable(1) %call.i, ptr noundef nonnull dereferenceable(1) %1) #24
  %cmp.i.i.i = icmp eq i32 %call.i.i.i, 0
  br i1 %cmp.i.i.i, label %_ZNK4pugi13xml_attribute9as_stringEPKc.exit.i, label %for.inc.i.i

for.inc.i.i:                                      ; preds = %land.lhs.true.i.i, %for.body.i.i
  %next_attribute.i.i = getelementptr inbounds i8, ptr %i.08.i.i, i64 32
  %i.0.i.i = load ptr, ptr %next_attribute.i.i, align 8
  %tobool3.not.i.i = icmp eq ptr %i.0.i.i, null
  br i1 %tobool3.not.i.i, label %cleanup, label %for.body.i.i, !llvm.loop !16

_ZNK4pugi13xml_attribute9as_stringEPKc.exit.i:    ; preds = %land.lhs.true.i.i
  %value3.i.i = getelementptr inbounds i8, ptr %i.08.i.i, i64 16
  %2 = load ptr, ptr %value3.i.i, align 8
  %tobool4.not.i4.i = icmp eq ptr %2, null
  %cond.i.i = select i1 %tobool4.not.i4.i, ptr @.str.21, ptr %2
  %call4.i1 = invoke noundef nonnull align 8 dereferenceable(32) ptr @_ZNSt7__cxx1112basic_stringIcSt11char_traitsIcESaIcEEaSEPKc(ptr noundef nonnull align 8 dereferenceable(32) %strValue, ptr noundef nonnull %cond.i.i)
          to label %if.then unwind label %lpad

if.then:                                          ; preds = %_ZNK4pugi13xml_attribute9as_stringEPKc.exit.i
  %call1 = call noundef ptr @_ZNKSt7__cxx1112basic_stringIcSt11char_traitsIcESaIcEE5c_strEv(ptr noundef nonnull align 8 dereferenceable(32) %strValue) #23
  %call2 = call i32 @atoi(ptr nocapture noundef %call1) #24
  store i32 %call2, ptr %value, align 4
  br label %cleanup

lpad:                                             ; preds = %_ZNK4pugi13xml_attribute9as_stringEPKc.exit.i
  %3 = landingpad { ptr, i32 }
          cleanup
  call void @_ZNSt7__cxx1112basic_stringIcSt11char_traitsIcESaIcEED1Ev(ptr noundef nonnull align 8 dereferenceable(32) %strValue) #23
  resume { ptr, i32 } %3

cleanup:                                          ; preds = %for.inc.i.i, %if.end.i.i, %entry, %if.then
  %tobool.not.i18.i3 = phi i1 [ true, %if.then ], [ false, %entry ], [ false, %if.end.i.i ], [ false, %for.inc.i.i ]
  call void @_ZNSt7__cxx1112basic_stringIcSt11char_traitsIcESaIcEED1Ev(ptr noundef nonnull align 8 dereferenceable(32) %strValue) #23
  ret i1 %tobool.not.i18.i3
}